; Function Attrs: nounwind uwtable
define internal noundef i32 @odict_tp_clear(ptr noundef %0) #0 {
  %2 = getelementptr inbounds nuw i8, ptr %0, i64 96
  %3 = load ptr, ptr %2, align 8, !tbaa !53
  %.not = icmp eq ptr %3, null
  br i1 %.not, label %Py_DECREF.exit, label %4

4:                                                ; preds = %1
  store ptr null, ptr %2, align 8, !tbaa !53
  %5 = load i32, ptr %3, align 8, !tbaa !38
  %.not.i = icmp sgt i32 %5, -1
  br i1 %.not.i, label %6, label %Py_DECREF.exit

6:                                                ; preds = %4
  %7 = add nsw i32 %5, -1
  store i32 %7, ptr %3, align 8, !tbaa !38
  %8 = icmp eq i32 %7, 0
  br i1 %8, label %9, label %Py_DECREF.exit

9:                                                ; preds = %6
  tail call void @_Py_Dealloc(ptr noundef nonnull %3) #8
  br label %Py_DECREF.exit

Py_DECREF.exit:                                   ; preds = %9, %6, %4, %1
  tail call void @PyDict_Clear(ptr noundef nonnull %0) #8
  %10 = getelementptr inbounds nuw i8, ptr %0, i64 64
  %11 = load ptr, ptr %10, align 8, !tbaa !40
  tail call void @PyMem_Free(ptr noundef %11) #8
  %12 = getelementptr inbounds nuw i8, ptr %0, i64 48
  tail call void @llvm.memset.p0.i64(ptr noundef nonnull align 8 dereferenceable(24) %10, i8 0, i64 24, i1 false)
  %13 = load ptr, ptr %12, align 8, !tbaa !41
  %.not13.i = icmp eq ptr %13, null
  tail call void @llvm.memset.p0.i64(ptr noundef nonnull align 8 dereferenceable(16) %12, i8 0, i64 16, i1 false)
  br i1 %.not13.i, label %_odict_clear_nodes.exit, label %.lr.ph.i

.lr.ph.i:                                         ; preds = %Py_DECREF.exit, %Py_DECREF.exit.i
  %.014.i = phi ptr [ %15, %Py_DECREF.exit.i ], [ %13, %Py_DECREF.exit ]
  %14 = getelementptr inbounds nuw i8, ptr %.014.i, i64 16
  %15 = load ptr, ptr %14, align 8, !tbaa !42
  %16 = load ptr, ptr %.014.i, align 8, !tbaa !44
  %17 = load i32, ptr %16, align 8, !tbaa !38
  %.not.i.i = icmp sgt i32 %17, -1
  br i1 %.not.i.i, label %18, label %Py_DECREF.exit.i

18:                                               ; preds = %.lr.ph.i
  %19 = add nsw i32 %17, -1
  store i32 %19, ptr %16, align 8, !tbaa !38
  %20 = icmp eq i32 %19, 0
  br i1 %20, label %21, label %Py_DECREF.exit.i

21:                                               ; preds = %18
  tail call void @_Py_Dealloc(ptr noundef nonnull %16) #8
  br label %Py_DECREF.exit.i

Py_DECREF.exit.i:                                 ; preds = %21, %18, %.lr.ph.i
  tail call void @PyMem_Free(ptr noundef nonnull %.014.i) #8
  %.not.i7 = icmp eq ptr %15, null
  br i1 %.not.i7, label %_odict_clear_nodes.exit, label %.lr.ph.i, !llvm.loop !45

_odict_clear_nodes.exit:                          ; preds = %Py_DECREF.exit.i, %Py_DECREF.exit
  %22 = getelementptr inbounds nuw i8, ptr %0, i64 88
  %23 = load i64, ptr %22, align 8, !tbaa !47
  %24 = add i64 %23, 1
  store i64 %24, ptr %22, align 8, !tbaa !47
  ret i32 0
}